(dp0
S'Lirik'
p1
(lp2
S'http://overrustlelogs.net/Lirik%20chatlog/September%202014/2014-09-05'
p3
aS'http://overrustlelogs.net/Lirik%20chatlog/September%202014/2014-09-06'
p4
aS'http://overrustlelogs.net/Lirik%20chatlog/September%202014/2014-09-07'
p5
aS'http://overrustlelogs.net/Lirik%20chatlog/September%202014/2014-09-08'
p6
aS'http://overrustlelogs.net/Lirik%20chatlog/September%202014/2014-09-09'
p7
aS'http://overrustlelogs.net/Lirik%20chatlog/September%202014/2014-09-10'
p8
aS'http://overrustlelogs.net/Lirik%20chatlog/September%202014/2014-09-11'
p9
aS'http://overrustlelogs.net/Lirik%20chatlog/September%202014/2014-09-12'
p10
aS'http://overrustlelogs.net/Lirik%20chatlog/September%202014/2014-09-13'
p11
aS'http://overrustlelogs.net/Lirik%20chatlog/September%202014/2014-09-14'
p12
aS'http://overrustlelogs.net/Lirik%20chatlog/September%202014/2014-09-15'
p13
aS'http://overrustlelogs.net/Lirik%20chatlog/September%202014/2014-09-16'
p14
aS'http://overrustlelogs.net/Lirik%20chatlog/September%202014/2014-09-17'
p15
aS'http://overrustlelogs.net/Lirik%20chatlog/September%202014/2014-09-18'
p16
aS'http://overrustlelogs.net/Lirik%20chatlog/September%202014/2014-09-19'
p17
aS'http://overrustlelogs.net/Lirik%20chatlog/September%202014/2014-09-20'
p18
aS'http://overrustlelogs.net/Lirik%20chatlog/September%202014/2014-09-21'
p19
aS'http://overrustlelogs.net/Lirik%20chatlog/September%202014/2014-09-22'
p20
aS'http://overrustlelogs.net/Lirik%20chatlog/September%202014/2014-09-23'
p21
aS'http://overrustlelogs.net/Lirik%20chatlog/September%202014/2014-09-24'
p22
aS'http://overrustlelogs.net/Lirik%20chatlog/September%202014/2014-09-25'
p23
aS'http://overrustlelogs.net/Lirik%20chatlog/September%202014/2014-09-26'
p24
aS'http://overrustlelogs.net/Lirik%20chatlog/September%202014/2014-09-27'
p25
aS'http://overrustlelogs.net/Lirik%20chatlog/September%202014/2014-09-28'
p26
aS'http://overrustlelogs.net/Lirik%20chatlog/September%202014/2014-09-29'
p27
aS'http://overrustlelogs.net/Lirik%20chatlog/September%202014/2014-09-30'
p28
aS'http://overrustlelogs.net/Lirik%20chatlog/October%202014/2014-10-01'
p29
aS'http://overrustlelogs.net/Lirik%20chatlog/October%202014/2014-10-02'
p30
aS'http://overrustlelogs.net/Lirik%20chatlog/October%202014/2014-10-03'
p31
aS'http://overrustlelogs.net/Lirik%20chatlog/October%202014/2014-10-04'
p32
aS'http://overrustlelogs.net/Lirik%20chatlog/October%202014/2014-10-05'
p33
aS'http://overrustlelogs.net/Lirik%20chatlog/October%202014/2014-10-06'
p34
aS'http://overrustlelogs.net/Lirik%20chatlog/October%202014/2014-10-07'
p35
aS'http://overrustlelogs.net/Lirik%20chatlog/October%202014/2014-10-08'
p36
aS'http://overrustlelogs.net/Lirik%20chatlog/October%202014/2014-10-09'
p37
aS'http://overrustlelogs.net/Lirik%20chatlog/October%202014/2014-10-10'
p38
aS'http://overrustlelogs.net/Lirik%20chatlog/October%202014/2014-10-11'
p39
aS'http://overrustlelogs.net/Lirik%20chatlog/October%202014/2014-10-12'
p40
aS'http://overrustlelogs.net/Lirik%20chatlog/October%202014/2014-10-13'
p41
aS'http://overrustlelogs.net/Lirik%20chatlog/October%202014/2014-10-14'
p42
aS'http://overrustlelogs.net/Lirik%20chatlog/October%202014/2014-10-15'
p43
aS'http://overrustlelogs.net/Lirik%20chatlog/October%202014/2014-10-16'
p44
aS'http://overrustlelogs.net/Lirik%20chatlog/October%202014/2014-10-17'
p45
aS'http://overrustlelogs.net/Lirik%20chatlog/October%202014/2014-10-18'
p46
aS'http://overrustlelogs.net/Lirik%20chatlog/October%202014/2014-10-19'
p47
aS'http://overrustlelogs.net/Lirik%20chatlog/October%202014/2014-10-20'
p48
aS'http://overrustlelogs.net/Lirik%20chatlog/October%202014/2014-10-21'
p49
aS'http://overrustlelogs.net/Lirik%20chatlog/October%202014/2014-10-22'
p50
aS'http://overrustlelogs.net/Lirik%20chatlog/October%202014/2014-10-23'
p51
aS'http://overrustlelogs.net/Lirik%20chatlog/October%202014/2014-10-24'
p52
aS'http://overrustlelogs.net/Lirik%20chatlog/October%202014/2014-10-25'
p53
aS'http://overrustlelogs.net/Lirik%20chatlog/October%202014/2014-10-26'
p54
aS'http://overrustlelogs.net/Lirik%20chatlog/October%202014/2014-10-27'
p55
aS'http://overrustlelogs.net/Lirik%20chatlog/October%202014/2014-10-28'
p56
aS'http://overrustlelogs.net/Lirik%20chatlog/October%202014/2014-10-29'
p57
aS'http://overrustlelogs.net/Lirik%20chatlog/October%202014/2014-10-30'
p58
aS'http://overrustlelogs.net/Lirik%20chatlog/October%202014/2014-10-31'
p59
aS'http://overrustlelogs.net/Lirik%20chatlog/November%202014/2014-11-01'
p60
aS'http://overrustlelogs.net/Lirik%20chatlog/November%202014/2014-11-02'
p61
aS'http://overrustlelogs.net/Lirik%20chatlog/November%202014/2014-11-03'
p62
aS'http://overrustlelogs.net/Lirik%20chatlog/November%202014/2014-11-04'
p63
aS'http://overrustlelogs.net/Lirik%20chatlog/November%202014/2014-11-05'
p64
aS'http://overrustlelogs.net/Lirik%20chatlog/November%202014/2014-11-06'
p65
aS'http://overrustlelogs.net/Lirik%20chatlog/November%202014/2014-11-07'
p66
aS'http://overrustlelogs.net/Lirik%20chatlog/November%202014/2014-11-08'
p67
aS'http://overrustlelogs.net/Lirik%20chatlog/November%202014/2014-11-09'
p68
aS'http://overrustlelogs.net/Lirik%20chatlog/November%202014/2014-11-10'
p69
aS'http://overrustlelogs.net/Lirik%20chatlog/November%202014/2014-11-11'
p70
aS'http://overrustlelogs.net/Lirik%20chatlog/November%202014/2014-11-12'
p71
aS'http://overrustlelogs.net/Lirik%20chatlog/November%202014/2014-11-13'
p72
aS'http://overrustlelogs.net/Lirik%20chatlog/November%202014/2014-11-14'
p73
aS'http://overrustlelogs.net/Lirik%20chatlog/November%202014/2014-11-15'
p74
aS'http://overrustlelogs.net/Lirik%20chatlog/November%202014/2014-11-16'
p75
aS'http://overrustlelogs.net/Lirik%20chatlog/November%202014/2014-11-17'
p76
aS'http://overrustlelogs.net/Lirik%20chatlog/November%202014/2014-11-18'
p77
aS'http://overrustlelogs.net/Lirik%20chatlog/November%202014/2014-11-19'
p78
aS'http://overrustlelogs.net/Lirik%20chatlog/November%202014/2014-11-20'
p79
aS'http://overrustlelogs.net/Lirik%20chatlog/November%202014/2014-11-21'
p80
aS'http://overrustlelogs.net/Lirik%20chatlog/November%202014/2014-11-22'
p81
aS'http://overrustlelogs.net/Lirik%20chatlog/November%202014/2014-11-23'
p82
aS'http://overrustlelogs.net/Lirik%20chatlog/November%202014/2014-11-24'
p83
aS'http://overrustlelogs.net/Lirik%20chatlog/November%202014/2014-11-25'
p84
aS'http://overrustlelogs.net/Lirik%20chatlog/November%202014/2014-11-26'
p85
aS'http://overrustlelogs.net/Lirik%20chatlog/November%202014/2014-11-27'
p86
aS'http://overrustlelogs.net/Lirik%20chatlog/November%202014/2014-11-28'
p87
aS'http://overrustlelogs.net/Lirik%20chatlog/November%202014/2014-11-29'
p88
aS'http://overrustlelogs.net/Lirik%20chatlog/November%202014/2014-11-30'
p89
aS'http://overrustlelogs.net/Lirik%20chatlog/December%202014/2014-12-01'
p90
aS'http://overrustlelogs.net/Lirik%20chatlog/December%202014/2014-12-02'
p91
aS'http://overrustlelogs.net/Lirik%20chatlog/December%202014/2014-12-03'
p92
aS'http://overrustlelogs.net/Lirik%20chatlog/December%202014/2014-12-04'
p93
aS'http://overrustlelogs.net/Lirik%20chatlog/December%202014/2014-12-05'
p94
aS'http://overrustlelogs.net/Lirik%20chatlog/December%202014/2014-12-06'
p95
aS'http://overrustlelogs.net/Lirik%20chatlog/December%202014/2014-12-07'
p96
aS'http://overrustlelogs.net/Lirik%20chatlog/December%202014/2014-12-08'
p97
aS'http://overrustlelogs.net/Lirik%20chatlog/December%202014/2014-12-09'
p98
aS'http://overrustlelogs.net/Lirik%20chatlog/December%202014/2014-12-10'
p99
aS'http://overrustlelogs.net/Lirik%20chatlog/December%202014/2014-12-11'
p100
aS'http://overrustlelogs.net/Lirik%20chatlog/December%202014/2014-12-12'
p101
aS'http://overrustlelogs.net/Lirik%20chatlog/December%202014/2014-12-13'
p102
aS'http://overrustlelogs.net/Lirik%20chatlog/December%202014/2014-12-14'
p103
aS'http://overrustlelogs.net/Lirik%20chatlog/December%202014/2014-12-15'
p104
aS'http://overrustlelogs.net/Lirik%20chatlog/December%202014/2014-12-16'
p105
aS'http://overrustlelogs.net/Lirik%20chatlog/December%202014/2014-12-17'
p106
aS'http://overrustlelogs.net/Lirik%20chatlog/December%202014/2014-12-18'
p107
aS'http://overrustlelogs.net/Lirik%20chatlog/December%202014/2014-12-19'
p108
aS'http://overrustlelogs.net/Lirik%20chatlog/December%202014/2014-12-20'
p109
aS'http://overrustlelogs.net/Lirik%20chatlog/December%202014/2014-12-21'
p110
aS'http://overrustlelogs.net/Lirik%20chatlog/December%202014/2014-12-22'
p111
aS'http://overrustlelogs.net/Lirik%20chatlog/December%202014/2014-12-23'
p112
aS'http://overrustlelogs.net/Lirik%20chatlog/December%202014/2014-12-24'
p113
aS'http://overrustlelogs.net/Lirik%20chatlog/December%202014/2014-12-25'
p114
aS'http://overrustlelogs.net/Lirik%20chatlog/December%202014/2014-12-26'
p115
aS'http://overrustlelogs.net/Lirik%20chatlog/December%202014/2014-12-27'
p116
aS'http://overrustlelogs.net/Lirik%20chatlog/December%202014/2014-12-28'
p117
aS'http://overrustlelogs.net/Lirik%20chatlog/December%202014/2014-12-29'
p118
aS'http://overrustlelogs.net/Lirik%20chatlog/December%202014/2014-12-30'
p119
aS'http://overrustlelogs.net/Lirik%20chatlog/December%202014/2014-12-31'
p120
aS'http://overrustlelogs.net/Lirik%20chatlog/January%202015/2015-01-01'
p121
aS'http://overrustlelogs.net/Lirik%20chatlog/January%202015/2015-01-02'
p122
aS'http://overrustlelogs.net/Lirik%20chatlog/January%202015/2015-01-03'
p123
aS'http://overrustlelogs.net/Lirik%20chatlog/January%202015/2015-01-04'
p124
aS'http://overrustlelogs.net/Lirik%20chatlog/January%202015/2015-01-05'
p125
aS'http://overrustlelogs.net/Lirik%20chatlog/January%202015/2015-01-06'
p126
aS'http://overrustlelogs.net/Lirik%20chatlog/January%202015/2015-01-07'
p127
aS'http://overrustlelogs.net/Lirik%20chatlog/January%202015/2015-01-08'
p128
aS'http://overrustlelogs.net/Lirik%20chatlog/January%202015/2015-01-09'
p129
aS'http://overrustlelogs.net/Lirik%20chatlog/January%202015/2015-01-10'
p130
aS'http://overrustlelogs.net/Lirik%20chatlog/January%202015/2015-01-11'
p131
aS'http://overrustlelogs.net/Lirik%20chatlog/January%202015/2015-01-12'
p132
aS'http://overrustlelogs.net/Lirik%20chatlog/January%202015/2015-01-13'
p133
aS'http://overrustlelogs.net/Lirik%20chatlog/January%202015/2015-01-14'
p134
aS'http://overrustlelogs.net/Lirik%20chatlog/January%202015/2015-01-15'
p135
aS'http://overrustlelogs.net/Lirik%20chatlog/January%202015/2015-01-16'
p136
aS'http://overrustlelogs.net/Lirik%20chatlog/January%202015/2015-01-17'
p137
aS'http://overrustlelogs.net/Lirik%20chatlog/January%202015/2015-01-18'
p138
aS'http://overrustlelogs.net/Lirik%20chatlog/January%202015/2015-01-19'
p139
aS'http://overrustlelogs.net/Lirik%20chatlog/January%202015/2015-01-20'
p140
aS'http://overrustlelogs.net/Lirik%20chatlog/January%202015/2015-01-21'
p141
aS'http://overrustlelogs.net/Lirik%20chatlog/January%202015/2015-01-22'
p142
aS'http://overrustlelogs.net/Lirik%20chatlog/January%202015/2015-01-23'
p143
aS'http://overrustlelogs.net/Lirik%20chatlog/January%202015/2015-01-24'
p144
aS'http://overrustlelogs.net/Lirik%20chatlog/January%202015/2015-01-25'
p145
aS'http://overrustlelogs.net/Lirik%20chatlog/January%202015/2015-01-26'
p146
aS'http://overrustlelogs.net/Lirik%20chatlog/January%202015/2015-01-27'
p147
aS'http://overrustlelogs.net/Lirik%20chatlog/January%202015/2015-01-28'
p148
aS'http://overrustlelogs.net/Lirik%20chatlog/January%202015/2015-01-29'
p149
aS'http://overrustlelogs.net/Lirik%20chatlog/January%202015/2015-01-30'
p150
aS'http://overrustlelogs.net/Lirik%20chatlog/January%202015/2015-01-31'
p151
aS'http://overrustlelogs.net/Lirik%20chatlog/February%202015/2015-02-01'
p152
aS'http://overrustlelogs.net/Lirik%20chatlog/February%202015/2015-02-02'
p153
aS'http://overrustlelogs.net/Lirik%20chatlog/February%202015/2015-02-03'
p154
aS'http://overrustlelogs.net/Lirik%20chatlog/February%202015/2015-02-04'
p155
aS'http://overrustlelogs.net/Lirik%20chatlog/February%202015/2015-02-05'
p156
aS'http://overrustlelogs.net/Lirik%20chatlog/February%202015/2015-02-06'
p157
aS'http://overrustlelogs.net/Lirik%20chatlog/February%202015/2015-02-07'
p158
aS'http://overrustlelogs.net/Lirik%20chatlog/February%202015/2015-02-08'
p159
aS'http://overrustlelogs.net/Lirik%20chatlog/February%202015/2015-02-09'
p160
aS'http://overrustlelogs.net/Lirik%20chatlog/February%202015/2015-02-10'
p161
aS'http://overrustlelogs.net/Lirik%20chatlog/February%202015/2015-02-11'
p162
aS'http://overrustlelogs.net/Lirik%20chatlog/February%202015/2015-02-12'
p163
aS'http://overrustlelogs.net/Lirik%20chatlog/February%202015/2015-02-13'
p164
aS'http://overrustlelogs.net/Lirik%20chatlog/February%202015/2015-02-14'
p165
aS'http://overrustlelogs.net/Lirik%20chatlog/February%202015/2015-02-15'
p166
aS'http://overrustlelogs.net/Lirik%20chatlog/February%202015/2015-02-16'
p167
aS'http://overrustlelogs.net/Lirik%20chatlog/February%202015/2015-02-17'
p168
aS'http://overrustlelogs.net/Lirik%20chatlog/February%202015/2015-02-18'
p169
aS'http://overrustlelogs.net/Lirik%20chatlog/February%202015/2015-02-19'
p170
aS'http://overrustlelogs.net/Lirik%20chatlog/February%202015/2015-02-20'
p171
aS'http://overrustlelogs.net/Lirik%20chatlog/February%202015/2015-02-21'
p172
aS'http://overrustlelogs.net/Lirik%20chatlog/February%202015/2015-02-22'
p173
aS'http://overrustlelogs.net/Lirik%20chatlog/February%202015/2015-02-23'
p174
aS'http://overrustlelogs.net/Lirik%20chatlog/February%202015/2015-02-24'
p175
aS'http://overrustlelogs.net/Lirik%20chatlog/February%202015/2015-02-25'
p176
aS'http://overrustlelogs.net/Lirik%20chatlog/February%202015/2015-02-26'
p177
aS'http://overrustlelogs.net/Lirik%20chatlog/February%202015/2015-02-27'
p178
aS'http://overrustlelogs.net/Lirik%20chatlog/February%202015/2015-02-28'
p179
aS'http://overrustlelogs.net/Lirik%20chatlog/March%202015/2015-03-01'
p180
aS'http://overrustlelogs.net/Lirik%20chatlog/March%202015/2015-03-02'
p181
aS'http://overrustlelogs.net/Lirik%20chatlog/March%202015/2015-03-03'
p182
aS'http://overrustlelogs.net/Lirik%20chatlog/March%202015/2015-03-04'
p183
aS'http://overrustlelogs.net/Lirik%20chatlog/March%202015/2015-03-05'
p184
aS'http://overrustlelogs.net/Lirik%20chatlog/March%202015/2015-03-06'
p185
aS'http://overrustlelogs.net/Lirik%20chatlog/March%202015/2015-03-08'
p186
aS'http://overrustlelogs.net/Lirik%20chatlog/March%202015/2015-03-09'
p187
aS'http://overrustlelogs.net/Lirik%20chatlog/March%202015/2015-03-10'
p188
aS'http://overrustlelogs.net/Lirik%20chatlog/March%202015/2015-03-11'
p189
aS'http://overrustlelogs.net/Lirik%20chatlog/March%202015/2015-03-12'
p190
aS'http://overrustlelogs.net/Lirik%20chatlog/March%202015/2015-03-13'
p191
aS'http://overrustlelogs.net/Lirik%20chatlog/March%202015/2015-03-14'
p192
aS'http://overrustlelogs.net/Lirik%20chatlog/March%202015/2015-03-15'
p193
aS'http://overrustlelogs.net/Lirik%20chatlog/March%202015/2015-03-16'
p194
aS'http://overrustlelogs.net/Lirik%20chatlog/March%202015/2015-03-17'
p195
aS'http://overrustlelogs.net/Lirik%20chatlog/March%202015/2015-03-18'
p196
aS'http://overrustlelogs.net/Lirik%20chatlog/March%202015/2015-03-19'
p197
aS'http://overrustlelogs.net/Lirik%20chatlog/March%202015/2015-03-20'
p198
aS'http://overrustlelogs.net/Lirik%20chatlog/March%202015/2015-03-21'
p199
aS'http://overrustlelogs.net/Lirik%20chatlog/March%202015/2015-03-22'
p200
aS'http://overrustlelogs.net/Lirik%20chatlog/March%202015/2015-03-23'
p201
aS'http://overrustlelogs.net/Lirik%20chatlog/March%202015/2015-03-24'
p202
aS'http://overrustlelogs.net/Lirik%20chatlog/March%202015/2015-03-25'
p203
aS'http://overrustlelogs.net/Lirik%20chatlog/March%202015/2015-03-26'
p204
aS'http://overrustlelogs.net/Lirik%20chatlog/March%202015/2015-03-27'
p205
aS'http://overrustlelogs.net/Lirik%20chatlog/March%202015/2015-03-28'
p206
aS'http://overrustlelogs.net/Lirik%20chatlog/March%202015/2015-03-29'
p207
aS'http://overrustlelogs.net/Lirik%20chatlog/March%202015/2015-03-30'
p208
aS'http://overrustlelogs.net/Lirik%20chatlog/March%202015/2015-03-31'
p209
aS'http://overrustlelogs.net/Lirik%20chatlog/April%202015/2015-04-01'
p210
aS'http://overrustlelogs.net/Lirik%20chatlog/April%202015/2015-04-02'
p211
aS'http://overrustlelogs.net/Lirik%20chatlog/April%202015/2015-04-03'
p212
aS'http://overrustlelogs.net/Lirik%20chatlog/April%202015/2015-04-04'
p213
aS'http://overrustlelogs.net/Lirik%20chatlog/April%202015/2015-04-05'
p214
aS'http://overrustlelogs.net/Lirik%20chatlog/April%202015/2015-04-06'
p215
aS'http://overrustlelogs.net/Lirik%20chatlog/April%202015/2015-04-07'
p216
aS'http://overrustlelogs.net/Lirik%20chatlog/April%202015/2015-04-08'
p217
aS'http://overrustlelogs.net/Lirik%20chatlog/April%202015/2015-04-09'
p218
aS'http://overrustlelogs.net/Lirik%20chatlog/April%202015/2015-04-10'
p219
aS'http://overrustlelogs.net/Lirik%20chatlog/April%202015/2015-04-11'
p220
aS'http://overrustlelogs.net/Lirik%20chatlog/April%202015/2015-04-12'
p221
aS'http://overrustlelogs.net/Lirik%20chatlog/April%202015/2015-04-13'
p222
aS'http://overrustlelogs.net/Lirik%20chatlog/April%202015/2015-04-14'
p223
aS'http://overrustlelogs.net/Lirik%20chatlog/April%202015/2015-04-15'
p224
aS'http://overrustlelogs.net/Lirik%20chatlog/April%202015/2015-04-16'
p225
aS'http://overrustlelogs.net/Lirik%20chatlog/April%202015/2015-04-17'
p226
aS'http://overrustlelogs.net/Lirik%20chatlog/April%202015/2015-04-18'
p227
aS'http://overrustlelogs.net/Lirik%20chatlog/April%202015/2015-04-19'
p228
aS'http://overrustlelogs.net/Lirik%20chatlog/April%202015/2015-04-20'
p229
aS'http://overrustlelogs.net/Lirik%20chatlog/April%202015/2015-04-21'
p230
aS'http://overrustlelogs.net/Lirik%20chatlog/April%202015/2015-04-22'
p231
aS'http://overrustlelogs.net/Lirik%20chatlog/April%202015/2015-04-23'
p232
aS'http://overrustlelogs.net/Lirik%20chatlog/April%202015/2015-04-24'
p233
aS'http://overrustlelogs.net/Lirik%20chatlog/April%202015/2015-04-25'
p234
aS'http://overrustlelogs.net/Lirik%20chatlog/April%202015/2015-04-26'
p235
aS'http://overrustlelogs.net/Lirik%20chatlog/April%202015/2015-04-27'
p236
aS'http://overrustlelogs.net/Lirik%20chatlog/April%202015/2015-04-28'
p237
aS'http://overrustlelogs.net/Lirik%20chatlog/April%202015/2015-04-29'
p238
aS'http://overrustlelogs.net/Lirik%20chatlog/April%202015/2015-04-30'
p239
aS'http://overrustlelogs.net/Lirik%20chatlog/May%202015/2015-05-01'
p240
aS'http://overrustlelogs.net/Lirik%20chatlog/May%202015/2015-05-02'
p241
aS'http://overrustlelogs.net/Lirik%20chatlog/May%202015/2015-05-03'
p242
aS'http://overrustlelogs.net/Lirik%20chatlog/May%202015/2015-05-04'
p243
aS'http://overrustlelogs.net/Lirik%20chatlog/May%202015/2015-05-05'
p244
aS'http://overrustlelogs.net/Lirik%20chatlog/May%202015/2015-05-06'
p245
aS'http://overrustlelogs.net/Lirik%20chatlog/May%202015/2015-05-07'
p246
aS'http://overrustlelogs.net/Lirik%20chatlog/May%202015/2015-05-08'
p247
aS'http://overrustlelogs.net/Lirik%20chatlog/May%202015/2015-05-09'
p248
aS'http://overrustlelogs.net/Lirik%20chatlog/May%202015/2015-05-10'
p249
aS'http://overrustlelogs.net/Lirik%20chatlog/May%202015/2015-05-11'
p250
aS'http://overrustlelogs.net/Lirik%20chatlog/May%202015/2015-05-12'
p251
aS'http://overrustlelogs.net/Lirik%20chatlog/May%202015/2015-05-13'
p252
aS'http://overrustlelogs.net/Lirik%20chatlog/May%202015/2015-05-14'
p253
aS'http://overrustlelogs.net/Lirik%20chatlog/May%202015/2015-05-15'
p254
aS'http://overrustlelogs.net/Lirik%20chatlog/May%202015/2015-05-16'
p255
aS'http://overrustlelogs.net/Lirik%20chatlog/May%202015/2015-05-17'
p256
aS'http://overrustlelogs.net/Lirik%20chatlog/May%202015/2015-05-18'
p257
aS'http://overrustlelogs.net/Lirik%20chatlog/May%202015/2015-05-19'
p258
aS'http://overrustlelogs.net/Lirik%20chatlog/May%202015/2015-05-20'
p259
aS'http://overrustlelogs.net/Lirik%20chatlog/May%202015/2015-05-21'
p260
aS'http://overrustlelogs.net/Lirik%20chatlog/May%202015/2015-05-22'
p261
aS'http://overrustlelogs.net/Lirik%20chatlog/May%202015/2015-05-23'
p262
aS'http://overrustlelogs.net/Lirik%20chatlog/May%202015/2015-05-24'
p263
aS'http://overrustlelogs.net/Lirik%20chatlog/May%202015/2015-05-25'
p264
aS'http://overrustlelogs.net/Lirik%20chatlog/May%202015/2015-05-26'
p265
aS'http://overrustlelogs.net/Lirik%20chatlog/May%202015/2015-05-27'
p266
aS'http://overrustlelogs.net/Lirik%20chatlog/May%202015/2015-05-28'
p267
aS'http://overrustlelogs.net/Lirik%20chatlog/May%202015/2015-05-29'
p268
aS'http://overrustlelogs.net/Lirik%20chatlog/May%202015/2015-05-30'
p269
aS'http://overrustlelogs.net/Lirik%20chatlog/May%202015/2015-05-31'
p270
aS'http://overrustlelogs.net/Lirik%20chatlog/June%202015/2015-06-01'
p271
aS'http://overrustlelogs.net/Lirik%20chatlog/June%202015/2015-06-02'
p272
aS'http://overrustlelogs.net/Lirik%20chatlog/June%202015/2015-06-03'
p273
aS'http://overrustlelogs.net/Lirik%20chatlog/June%202015/2015-06-04'
p274
aS'http://overrustlelogs.net/Lirik%20chatlog/June%202015/2015-06-05'
p275
aS'http://overrustlelogs.net/Lirik%20chatlog/June%202015/2015-06-06'
p276
aS'http://overrustlelogs.net/Lirik%20chatlog/June%202015/2015-06-07'
p277
aS'http://overrustlelogs.net/Lirik%20chatlog/June%202015/2015-06-08'
p278
aS'http://overrustlelogs.net/Lirik%20chatlog/June%202015/2015-06-09'
p279
aS'http://overrustlelogs.net/Lirik%20chatlog/June%202015/2015-06-10'
p280
aS'http://overrustlelogs.net/Lirik%20chatlog/June%202015/2015-06-11'
p281
aS'http://overrustlelogs.net/Lirik%20chatlog/June%202015/2015-06-12'
p282
aS'http://overrustlelogs.net/Lirik%20chatlog/June%202015/2015-06-13'
p283
aS'http://overrustlelogs.net/Lirik%20chatlog/June%202015/2015-06-14'
p284
aS'http://overrustlelogs.net/Lirik%20chatlog/June%202015/2015-06-15'
p285
aS'http://overrustlelogs.net/Lirik%20chatlog/June%202015/2015-06-16'
p286
aS'http://overrustlelogs.net/Lirik%20chatlog/June%202015/2015-06-17'
p287
aS'http://overrustlelogs.net/Lirik%20chatlog/June%202015/2015-06-18'
p288
aS'http://overrustlelogs.net/Lirik%20chatlog/June%202015/2015-06-19'
p289
aS'http://overrustlelogs.net/Lirik%20chatlog/June%202015/2015-06-20'
p290
aS'http://overrustlelogs.net/Lirik%20chatlog/June%202015/2015-06-21'
p291
aS'http://overrustlelogs.net/Lirik%20chatlog/June%202015/2015-06-22'
p292
aS'http://overrustlelogs.net/Lirik%20chatlog/June%202015/2015-06-23'
p293
aS'http://overrustlelogs.net/Lirik%20chatlog/June%202015/2015-06-24'
p294
aS'http://overrustlelogs.net/Lirik%20chatlog/June%202015/2015-06-25'
p295
aS'http://overrustlelogs.net/Lirik%20chatlog/June%202015/2015-06-26'
p296
aS'http://overrustlelogs.net/Lirik%20chatlog/June%202015/2015-06-27'
p297
aS'http://overrustlelogs.net/Lirik%20chatlog/June%202015/2015-06-28'
p298
aS'http://overrustlelogs.net/Lirik%20chatlog/June%202015/2015-06-29'
p299
aS'http://overrustlelogs.net/Lirik%20chatlog/June%202015/2015-06-30'
p300
aS'http://overrustlelogs.net/Lirik%20chatlog/July%202015/2015-07-01'
p301
aS'http://overrustlelogs.net/Lirik%20chatlog/July%202015/2015-07-02'
p302
aS'http://overrustlelogs.net/Lirik%20chatlog/July%202015/2015-07-03'
p303
aS'http://overrustlelogs.net/Lirik%20chatlog/July%202015/2015-07-04'
p304
aS'http://overrustlelogs.net/Lirik%20chatlog/July%202015/2015-07-05'
p305
aS'http://overrustlelogs.net/Lirik%20chatlog/July%202015/2015-07-06'
p306
aS'http://overrustlelogs.net/Lirik%20chatlog/July%202015/2015-07-07'
p307
aS'http://overrustlelogs.net/Lirik%20chatlog/July%202015/2015-07-08'
p308
aS'http://overrustlelogs.net/Lirik%20chatlog/July%202015/2015-07-09'
p309
aS'http://overrustlelogs.net/Lirik%20chatlog/July%202015/2015-07-10'
p310
aS'http://overrustlelogs.net/Lirik%20chatlog/July%202015/2015-07-11'
p311
aS'http://overrustlelogs.net/Lirik%20chatlog/July%202015/2015-07-12'
p312
aS'http://overrustlelogs.net/Lirik%20chatlog/July%202015/2015-07-13'
p313
aS'http://overrustlelogs.net/Lirik%20chatlog/July%202015/2015-07-14'
p314
aS'http://overrustlelogs.net/Lirik%20chatlog/July%202015/2015-07-15'
p315
aS'http://overrustlelogs.net/Lirik%20chatlog/July%202015/2015-07-16'
p316
aS'http://overrustlelogs.net/Lirik%20chatlog/July%202015/2015-07-17'
p317
aS'http://overrustlelogs.net/Lirik%20chatlog/July%202015/2015-07-18'
p318
aS'http://overrustlelogs.net/Lirik%20chatlog/July%202015/2015-07-19'
p319
aS'http://overrustlelogs.net/Lirik%20chatlog/July%202015/2015-07-20'
p320
aS'http://overrustlelogs.net/Lirik%20chatlog/July%202015/2015-07-21'
p321
aS'http://overrustlelogs.net/Lirik%20chatlog/July%202015/2015-07-22'
p322
aS'http://overrustlelogs.net/Lirik%20chatlog/July%202015/2015-07-23'
p323
aS'http://overrustlelogs.net/Lirik%20chatlog/July%202015/2015-07-24'
p324
aS'http://overrustlelogs.net/Lirik%20chatlog/July%202015/2015-07-25'
p325
aS'http://overrustlelogs.net/Lirik%20chatlog/July%202015/2015-07-26'
p326
aS'http://overrustlelogs.net/Lirik%20chatlog/July%202015/2015-07-27'
p327
aS'http://overrustlelogs.net/Lirik%20chatlog/July%202015/2015-07-28'
p328
aS'http://overrustlelogs.net/Lirik%20chatlog/July%202015/2015-07-29'
p329
aS'http://overrustlelogs.net/Lirik%20chatlog/July%202015/2015-07-30'
p330
aS'http://overrustlelogs.net/Lirik%20chatlog/July%202015/2015-07-31'
p331
aS'http://overrustlelogs.net/Lirik%20chatlog/August%202015/2015-08-01'
p332
aS'http://overrustlelogs.net/Lirik%20chatlog/August%202015/2015-08-02'
p333
aS'http://overrustlelogs.net/Lirik%20chatlog/August%202015/2015-08-03'
p334
aS'http://overrustlelogs.net/Lirik%20chatlog/August%202015/2015-08-04'
p335
aS'http://overrustlelogs.net/Lirik%20chatlog/August%202015/2015-08-05'
p336
aS'http://overrustlelogs.net/Lirik%20chatlog/August%202015/2015-08-06'
p337
aS'http://overrustlelogs.net/Lirik%20chatlog/August%202015/2015-08-07'
p338
aS'http://overrustlelogs.net/Lirik%20chatlog/August%202015/2015-08-08'
p339
aS'http://overrustlelogs.net/Lirik%20chatlog/August%202015/2015-08-09'
p340
aS'http://overrustlelogs.net/Lirik%20chatlog/August%202015/2015-08-10'
p341
aS'http://overrustlelogs.net/Lirik%20chatlog/August%202015/2015-08-11'
p342
aS'http://overrustlelogs.net/Lirik%20chatlog/August%202015/2015-08-12'
p343
aS'http://overrustlelogs.net/Lirik%20chatlog/August%202015/2015-08-13'
p344
aS'http://overrustlelogs.net/Lirik%20chatlog/August%202015/2015-08-14'
p345
aS'http://overrustlelogs.net/Lirik%20chatlog/August%202015/2015-08-15'
p346
aS'http://overrustlelogs.net/Lirik%20chatlog/August%202015/2015-08-16'
p347
aS'http://overrustlelogs.net/Lirik%20chatlog/August%202015/2015-08-17'
p348
aS'http://overrustlelogs.net/Lirik%20chatlog/August%202015/2015-08-18'
p349
aS'http://overrustlelogs.net/Lirik%20chatlog/August%202015/2015-08-19'
p350
aS'http://overrustlelogs.net/Lirik%20chatlog/August%202015/2015-08-20'
p351
aS'http://overrustlelogs.net/Lirik%20chatlog/August%202015/2015-08-21'
p352
aS'http://overrustlelogs.net/Lirik%20chatlog/August%202015/2015-08-22'
p353
aS'http://overrustlelogs.net/Lirik%20chatlog/August%202015/2015-08-23'
p354
aS'http://overrustlelogs.net/Lirik%20chatlog/August%202015/2015-08-24'
p355
aS'http://overrustlelogs.net/Lirik%20chatlog/August%202015/2015-08-25'
p356
aS'http://overrustlelogs.net/Lirik%20chatlog/August%202015/2015-08-26'
p357
aS'http://overrustlelogs.net/Lirik%20chatlog/August%202015/2015-08-27'
p358
aS'http://overrustlelogs.net/Lirik%20chatlog/August%202015/2015-08-28'
p359
aS'http://overrustlelogs.net/Lirik%20chatlog/August%202015/2015-08-29'
p360
aS'http://overrustlelogs.net/Lirik%20chatlog/August%202015/2015-08-30'
p361
aS'http://overrustlelogs.net/Lirik%20chatlog/August%202015/2015-08-31'
p362
aS'http://overrustlelogs.net/Lirik%20chatlog/September%202015/2015-09-01'
p363
aS'http://overrustlelogs.net/Lirik%20chatlog/September%202015/2015-09-02'
p364
aS'http://overrustlelogs.net/Lirik%20chatlog/September%202015/2015-09-03'
p365
aS'http://overrustlelogs.net/Lirik%20chatlog/September%202015/2015-09-04'
p366
aS'http://overrustlelogs.net/Lirik%20chatlog/September%202015/2015-09-05'
p367
aS'http://overrustlelogs.net/Lirik%20chatlog/September%202015/2015-09-06'
p368
aS'http://overrustlelogs.net/Lirik%20chatlog/September%202015/2015-09-07'
p369
aS'http://overrustlelogs.net/Lirik%20chatlog/September%202015/2015-09-08'
p370
aS'http://overrustlelogs.net/Lirik%20chatlog/September%202015/2015-09-09'
p371
aS'http://overrustlelogs.net/Lirik%20chatlog/September%202015/2015-09-10'
p372
aS'http://overrustlelogs.net/Lirik%20chatlog/September%202015/2015-09-11'
p373
aS'http://overrustlelogs.net/Lirik%20chatlog/September%202015/2015-09-12'
p374
aS'http://overrustlelogs.net/Lirik%20chatlog/September%202015/2015-09-13'
p375
aS'http://overrustlelogs.net/Lirik%20chatlog/September%202015/2015-09-14'
p376
aS'http://overrustlelogs.net/Lirik%20chatlog/September%202015/2015-09-15'
p377
aS'http://overrustlelogs.net/Lirik%20chatlog/September%202015/2015-09-16'
p378
aS'http://overrustlelogs.net/Lirik%20chatlog/September%202015/2015-09-17'
p379
aS'http://overrustlelogs.net/Lirik%20chatlog/September%202015/2015-09-18'
p380
aS'http://overrustlelogs.net/Lirik%20chatlog/September%202015/2015-09-19'
p381
aS'http://overrustlelogs.net/Lirik%20chatlog/September%202015/2015-09-20'
p382
aS'http://overrustlelogs.net/Lirik%20chatlog/September%202015/2015-09-21'
p383
aS'http://overrustlelogs.net/Lirik%20chatlog/September%202015/2015-09-22'
p384
aS'http://overrustlelogs.net/Lirik%20chatlog/September%202015/2015-09-23'
p385
aS'http://overrustlelogs.net/Lirik%20chatlog/September%202015/2015-09-24'
p386
aS'http://overrustlelogs.net/Lirik%20chatlog/September%202015/2015-09-25'
p387
aS'http://overrustlelogs.net/Lirik%20chatlog/September%202015/2015-09-26'
p388
aS'http://overrustlelogs.net/Lirik%20chatlog/September%202015/2015-09-27'
p389
aS'http://overrustlelogs.net/Lirik%20chatlog/September%202015/2015-09-28'
p390
aS'http://overrustlelogs.net/Lirik%20chatlog/September%202015/2015-09-29'
p391
aS'http://overrustlelogs.net/Lirik%20chatlog/September%202015/2015-09-30'
p392
aS'http://overrustlelogs.net/Lirik%20chatlog/October%202015/2015-10-01'
p393
aS'http://overrustlelogs.net/Lirik%20chatlog/October%202015/2015-10-02'
p394
aS'http://overrustlelogs.net/Lirik%20chatlog/October%202015/2015-10-03'
p395
aS'http://overrustlelogs.net/Lirik%20chatlog/October%202015/2015-10-04'
p396
aS'http://overrustlelogs.net/Lirik%20chatlog/October%202015/2015-10-05'
p397
aS'http://overrustlelogs.net/Lirik%20chatlog/October%202015/2015-10-06'
p398
aS'http://overrustlelogs.net/Lirik%20chatlog/October%202015/2015-10-07'
p399
aS'http://overrustlelogs.net/Lirik%20chatlog/October%202015/2015-10-08'
p400
aS'http://overrustlelogs.net/Lirik%20chatlog/October%202015/2015-10-09'
p401
aS'http://overrustlelogs.net/Lirik%20chatlog/October%202015/2015-10-10'
p402
aS'http://overrustlelogs.net/Lirik%20chatlog/October%202015/2015-10-11'
p403
aS'http://overrustlelogs.net/Lirik%20chatlog/October%202015/2015-10-12'
p404
aS'http://overrustlelogs.net/Lirik%20chatlog/October%202015/2015-10-13'
p405
aS'http://overrustlelogs.net/Lirik%20chatlog/October%202015/2015-10-14'
p406
aS'http://overrustlelogs.net/Lirik%20chatlog/October%202015/2015-10-15'
p407
aS'http://overrustlelogs.net/Lirik%20chatlog/October%202015/2015-10-16'
p408
aS'http://overrustlelogs.net/Lirik%20chatlog/October%202015/2015-10-17'
p409
aS'http://overrustlelogs.net/Lirik%20chatlog/October%202015/2015-10-18'
p410
aS'http://overrustlelogs.net/Lirik%20chatlog/October%202015/2015-10-19'
p411
aS'http://overrustlelogs.net/Lirik%20chatlog/October%202015/2015-10-20'
p412
aS'http://overrustlelogs.net/Lirik%20chatlog/October%202015/2015-10-21'
p413
aS'http://overrustlelogs.net/Lirik%20chatlog/October%202015/2015-10-22'
p414
aS'http://overrustlelogs.net/Lirik%20chatlog/October%202015/2015-10-23'
p415
aS'http://overrustlelogs.net/Lirik%20chatlog/October%202015/2015-10-24'
p416
aS'http://overrustlelogs.net/Lirik%20chatlog/October%202015/2015-10-25'
p417
aS'http://overrustlelogs.net/Lirik%20chatlog/October%202015/2015-10-26'
p418
aS'http://overrustlelogs.net/Lirik%20chatlog/October%202015/2015-10-27'
p419
aS'http://overrustlelogs.net/Lirik%20chatlog/October%202015/2015-10-28'
p420
aS'http://overrustlelogs.net/Lirik%20chatlog/October%202015/2015-10-29'
p421
aS'http://overrustlelogs.net/Lirik%20chatlog/October%202015/2015-10-30'
p422
aS'http://overrustlelogs.net/Lirik%20chatlog/October%202015/2015-10-31'
p423
aS'http://overrustlelogs.net/Lirik%20chatlog/November%202015/2015-11-01'
p424
aS'http://overrustlelogs.net/Lirik%20chatlog/November%202015/2015-11-02'
p425
aS'http://overrustlelogs.net/Lirik%20chatlog/November%202015/2015-11-03'
p426
aS'http://overrustlelogs.net/Lirik%20chatlog/November%202015/2015-11-04'
p427
aS'http://overrustlelogs.net/Lirik%20chatlog/November%202015/2015-11-05'
p428
aS'http://overrustlelogs.net/Lirik%20chatlog/November%202015/2015-11-06'
p429
aS'http://overrustlelogs.net/Lirik%20chatlog/November%202015/2015-11-07'
p430
aS'http://overrustlelogs.net/Lirik%20chatlog/November%202015/2015-11-08'
p431
aS'http://overrustlelogs.net/Lirik%20chatlog/November%202015/2015-11-09'
p432
aS'http://overrustlelogs.net/Lirik%20chatlog/November%202015/2015-11-10'
p433
aS'http://overrustlelogs.net/Lirik%20chatlog/November%202015/2015-11-11'
p434
aS'http://overrustlelogs.net/Lirik%20chatlog/November%202015/2015-11-12'
p435
aS'http://overrustlelogs.net/Lirik%20chatlog/November%202015/2015-11-13'
p436
aS'http://overrustlelogs.net/Lirik%20chatlog/November%202015/2015-11-14'
p437
aS'http://overrustlelogs.net/Lirik%20chatlog/November%202015/2015-11-15'
p438
aS'http://overrustlelogs.net/Lirik%20chatlog/November%202015/2015-11-16'
p439
aS'http://overrustlelogs.net/Lirik%20chatlog/November%202015/2015-11-17'
p440
aS'http://overrustlelogs.net/Lirik%20chatlog/November%202015/2015-11-18'
p441
aS'http://overrustlelogs.net/Lirik%20chatlog/November%202015/2015-11-19'
p442
aS'http://overrustlelogs.net/Lirik%20chatlog/November%202015/2015-11-20'
p443
aS'http://overrustlelogs.net/Lirik%20chatlog/November%202015/2015-11-21'
p444
aS'http://overrustlelogs.net/Lirik%20chatlog/November%202015/2015-11-22'
p445
aS'http://overrustlelogs.net/Lirik%20chatlog/November%202015/2015-11-23'
p446
aS'http://overrustlelogs.net/Lirik%20chatlog/November%202015/2015-11-24'
p447
aS'http://overrustlelogs.net/Lirik%20chatlog/November%202015/2015-11-25'
p448
aS'http://overrustlelogs.net/Lirik%20chatlog/November%202015/2015-11-26'
p449
aS'http://overrustlelogs.net/Lirik%20chatlog/November%202015/2015-11-27'
p450
aS'http://overrustlelogs.net/Lirik%20chatlog/November%202015/2015-11-28'
p451
aS'http://overrustlelogs.net/Lirik%20chatlog/November%202015/2015-11-29'
p452
aS'http://overrustlelogs.net/Lirik%20chatlog/November%202015/2015-11-30'
p453
aS'http://overrustlelogs.net/Lirik%20chatlog/December%202015/2015-12-01'
p454
aS'http://overrustlelogs.net/Lirik%20chatlog/December%202015/2015-12-02'
p455
aS'http://overrustlelogs.net/Lirik%20chatlog/December%202015/2015-12-03'
p456
aS'http://overrustlelogs.net/Lirik%20chatlog/December%202015/2015-12-04'
p457
aS'http://overrustlelogs.net/Lirik%20chatlog/December%202015/2015-12-05'
p458
aS'http://overrustlelogs.net/Lirik%20chatlog/December%202015/2015-12-06'
p459
aS'http://overrustlelogs.net/Lirik%20chatlog/December%202015/2015-12-07'
p460
aS'http://overrustlelogs.net/Lirik%20chatlog/December%202015/2015-12-08'
p461
aS'http://overrustlelogs.net/Lirik%20chatlog/December%202015/2015-12-09'
p462
aS'http://overrustlelogs.net/Lirik%20chatlog/December%202015/2015-12-10'
p463
aS'http://overrustlelogs.net/Lirik%20chatlog/December%202015/2015-12-11'
p464
aS'http://overrustlelogs.net/Lirik%20chatlog/December%202015/2015-12-12'
p465
aS'http://overrustlelogs.net/Lirik%20chatlog/December%202015/2015-12-13'
p466
aS'http://overrustlelogs.net/Lirik%20chatlog/December%202015/2015-12-14'
p467
aS'http://overrustlelogs.net/Lirik%20chatlog/December%202015/2015-12-15'
p468
aS'http://overrustlelogs.net/Lirik%20chatlog/December%202015/2015-12-16'
p469
aS'http://overrustlelogs.net/Lirik%20chatlog/December%202015/2015-12-17'
p470
aS'http://overrustlelogs.net/Lirik%20chatlog/December%202015/2015-12-18'
p471
aS'http://overrustlelogs.net/Lirik%20chatlog/December%202015/2015-12-19'
p472
aS'http://overrustlelogs.net/Lirik%20chatlog/December%202015/2015-12-20'
p473
aS'http://overrustlelogs.net/Lirik%20chatlog/December%202015/2015-12-21'
p474
aS'http://overrustlelogs.net/Lirik%20chatlog/December%202015/2015-12-22'
p475
aS'http://overrustlelogs.net/Lirik%20chatlog/December%202015/2015-12-23'
p476
aS'http://overrustlelogs.net/Lirik%20chatlog/December%202015/2015-12-24'
p477
aS'http://overrustlelogs.net/Lirik%20chatlog/December%202015/2015-12-25'
p478
aS'http://overrustlelogs.net/Lirik%20chatlog/December%202015/2015-12-26'
p479
aS'http://overrustlelogs.net/Lirik%20chatlog/December%202015/2015-12-27'
p480
aS'http://overrustlelogs.net/Lirik%20chatlog/December%202015/2015-12-28'
p481
aS'http://overrustlelogs.net/Lirik%20chatlog/December%202015/2015-12-29'
p482
aS'http://overrustlelogs.net/Lirik%20chatlog/December%202015/2015-12-30'
p483
aS'http://overrustlelogs.net/Lirik%20chatlog/December%202015/2015-12-31'
p484
aS'http://overrustlelogs.net/Lirik%20chatlog/January%202016/2016-01-01'
p485
aS'http://overrustlelogs.net/Lirik%20chatlog/January%202016/2016-01-02'
p486
aS'http://overrustlelogs.net/Lirik%20chatlog/January%202016/2016-01-03'
p487
aS'http://overrustlelogs.net/Lirik%20chatlog/January%202016/2016-01-04'
p488
aS'http://overrustlelogs.net/Lirik%20chatlog/January%202016/2016-01-05'
p489
aS'http://overrustlelogs.net/Lirik%20chatlog/January%202016/2016-01-06'
p490
aS'http://overrustlelogs.net/Lirik%20chatlog/January%202016/2016-01-07'
p491
aS'http://overrustlelogs.net/Lirik%20chatlog/January%202016/2016-01-08'
p492
aS'http://overrustlelogs.net/Lirik%20chatlog/January%202016/2016-01-09'
p493
aS'http://overrustlelogs.net/Lirik%20chatlog/January%202016/2016-01-10'
p494
aS'http://overrustlelogs.net/Lirik%20chatlog/January%202016/2016-01-11'
p495
aS'http://overrustlelogs.net/Lirik%20chatlog/January%202016/2016-01-12'
p496
aS'http://overrustlelogs.net/Lirik%20chatlog/January%202016/2016-01-13'
p497
aS'http://overrustlelogs.net/Lirik%20chatlog/January%202016/2016-01-14'
p498
aS'http://overrustlelogs.net/Lirik%20chatlog/January%202016/2016-01-15'
p499
aS'http://overrustlelogs.net/Lirik%20chatlog/January%202016/2016-01-16'
p500
aS'http://overrustlelogs.net/Lirik%20chatlog/January%202016/2016-01-17'
p501
aS'http://overrustlelogs.net/Lirik%20chatlog/January%202016/2016-01-18'
p502
aS'http://overrustlelogs.net/Lirik%20chatlog/January%202016/2016-01-19'
p503
aS'http://overrustlelogs.net/Lirik%20chatlog/January%202016/2016-01-20'
p504
aS'http://overrustlelogs.net/Lirik%20chatlog/January%202016/2016-01-21'
p505
aS'http://overrustlelogs.net/Lirik%20chatlog/January%202016/2016-01-22'
p506
aS'http://overrustlelogs.net/Lirik%20chatlog/January%202016/2016-01-23'
p507
aS'http://overrustlelogs.net/Lirik%20chatlog/January%202016/2016-01-24'
p508
aS'http://overrustlelogs.net/Lirik%20chatlog/January%202016/2016-01-25'
p509
aS'http://overrustlelogs.net/Lirik%20chatlog/January%202016/2016-01-26'
p510
aS'http://overrustlelogs.net/Lirik%20chatlog/January%202016/2016-01-27'
p511
aS'http://overrustlelogs.net/Lirik%20chatlog/January%202016/2016-01-28'
p512
aS'http://overrustlelogs.net/Lirik%20chatlog/January%202016/2016-01-29'
p513
aS'http://overrustlelogs.net/Lirik%20chatlog/January%202016/2016-01-30'
p514
aS'http://overrustlelogs.net/Lirik%20chatlog/January%202016/2016-01-31'
p515
aS'http://overrustlelogs.net/Lirik%20chatlog/February%202016/2016-02-01'
p516
aS'http://overrustlelogs.net/Lirik%20chatlog/February%202016/2016-02-02'
p517
aS'http://overrustlelogs.net/Lirik%20chatlog/February%202016/2016-02-03'
p518
aS'http://overrustlelogs.net/Lirik%20chatlog/February%202016/2016-02-04'
p519
aS'http://overrustlelogs.net/Lirik%20chatlog/February%202016/2016-02-05'
p520
aS'http://overrustlelogs.net/Lirik%20chatlog/February%202016/2016-02-06'
p521
aS'http://overrustlelogs.net/Lirik%20chatlog/February%202016/2016-02-07'
p522
aS'http://overrustlelogs.net/Lirik%20chatlog/February%202016/2016-02-08'
p523
aS'http://overrustlelogs.net/Lirik%20chatlog/February%202016/2016-02-09'
p524
aS'http://overrustlelogs.net/Lirik%20chatlog/February%202016/2016-02-10'
p525
aS'http://overrustlelogs.net/Lirik%20chatlog/February%202016/2016-02-11'
p526
aS'http://overrustlelogs.net/Lirik%20chatlog/February%202016/2016-02-12'
p527
aS'http://overrustlelogs.net/Lirik%20chatlog/February%202016/2016-02-13'
p528
aS'http://overrustlelogs.net/Lirik%20chatlog/February%202016/2016-02-14'
p529
aS'http://overrustlelogs.net/Lirik%20chatlog/February%202016/2016-02-15'
p530
aS'http://overrustlelogs.net/Lirik%20chatlog/February%202016/2016-02-16'
p531
aS'http://overrustlelogs.net/Lirik%20chatlog/February%202016/2016-02-17'
p532
aS'http://overrustlelogs.net/Lirik%20chatlog/February%202016/2016-02-18'
p533
aS'http://overrustlelogs.net/Lirik%20chatlog/February%202016/2016-02-19'
p534
aS'http://overrustlelogs.net/Lirik%20chatlog/February%202016/2016-02-20'
p535
aS'http://overrustlelogs.net/Lirik%20chatlog/February%202016/2016-02-21'
p536
aS'http://overrustlelogs.net/Lirik%20chatlog/February%202016/2016-02-22'
p537
aS'http://overrustlelogs.net/Lirik%20chatlog/February%202016/2016-02-23'
p538
aS'http://overrustlelogs.net/Lirik%20chatlog/February%202016/2016-02-24'
p539
aS'http://overrustlelogs.net/Lirik%20chatlog/February%202016/2016-02-25'
p540
aS'http://overrustlelogs.net/Lirik%20chatlog/February%202016/2016-02-26'
p541
aS'http://overrustlelogs.net/Lirik%20chatlog/February%202016/2016-02-27'
p542
aS'http://overrustlelogs.net/Lirik%20chatlog/February%202016/2016-02-28'
p543
aS'http://overrustlelogs.net/Lirik%20chatlog/February%202016/2016-02-29'
p544
aS'http://overrustlelogs.net/Lirik%20chatlog/March%202016/2016-03-01'
p545
aS'http://overrustlelogs.net/Lirik%20chatlog/March%202016/2016-03-02'
p546
aS'http://overrustlelogs.net/Lirik%20chatlog/March%202016/2016-03-03'
p547
aS'http://overrustlelogs.net/Lirik%20chatlog/March%202016/2016-03-04'
p548
aS'http://overrustlelogs.net/Lirik%20chatlog/March%202016/2016-03-05'
p549
aS'http://overrustlelogs.net/Lirik%20chatlog/March%202016/2016-03-06'
p550
aS'http://overrustlelogs.net/Lirik%20chatlog/March%202016/2016-03-07'
p551
aS'http://overrustlelogs.net/Lirik%20chatlog/March%202016/2016-03-08'
p552
aS'http://overrustlelogs.net/Lirik%20chatlog/March%202016/2016-03-09'
p553
aS'http://overrustlelogs.net/Lirik%20chatlog/March%202016/2016-03-10'
p554
aS'http://overrustlelogs.net/Lirik%20chatlog/March%202016/2016-03-11'
p555
aS'http://overrustlelogs.net/Lirik%20chatlog/March%202016/2016-03-12'
p556
aS'http://overrustlelogs.net/Lirik%20chatlog/March%202016/2016-03-13'
p557
aS'http://overrustlelogs.net/Lirik%20chatlog/March%202016/2016-03-14'
p558
aS'http://overrustlelogs.net/Lirik%20chatlog/March%202016/2016-03-15'
p559
aS'http://overrustlelogs.net/Lirik%20chatlog/March%202016/2016-03-16'
p560
aS'http://overrustlelogs.net/Lirik%20chatlog/March%202016/2016-03-17'
p561
aS'http://overrustlelogs.net/Lirik%20chatlog/March%202016/2016-03-18'
p562
aS'http://overrustlelogs.net/Lirik%20chatlog/March%202016/2016-03-19'
p563
aS'http://overrustlelogs.net/Lirik%20chatlog/March%202016/2016-03-20'
p564
aS'http://overrustlelogs.net/Lirik%20chatlog/March%202016/2016-03-21'
p565
aS'http://overrustlelogs.net/Lirik%20chatlog/March%202016/2016-03-22'
p566
aS'http://overrustlelogs.net/Lirik%20chatlog/March%202016/2016-03-23'
p567
aS'http://overrustlelogs.net/Lirik%20chatlog/March%202016/2016-03-24'
p568
aS'http://overrustlelogs.net/Lirik%20chatlog/March%202016/2016-03-25'
p569
aS'http://overrustlelogs.net/Lirik%20chatlog/March%202016/2016-03-26'
p570
aS'http://overrustlelogs.net/Lirik%20chatlog/March%202016/2016-03-27'
p571
aS'http://overrustlelogs.net/Lirik%20chatlog/March%202016/2016-03-28'
p572
aS'http://overrustlelogs.net/Lirik%20chatlog/March%202016/2016-03-29'
p573
aS'http://overrustlelogs.net/Lirik%20chatlog/March%202016/2016-03-30'
p574
aS'http://overrustlelogs.net/Lirik%20chatlog/March%202016/2016-03-31'
p575
aS'http://overrustlelogs.net/Lirik%20chatlog/April%202016/2016-04-01'
p576
aS'http://overrustlelogs.net/Lirik%20chatlog/April%202016/2016-04-02'
p577
aS'http://overrustlelogs.net/Lirik%20chatlog/April%202016/2016-04-03'
p578
aS'http://overrustlelogs.net/Lirik%20chatlog/April%202016/2016-04-04'
p579
aS'http://overrustlelogs.net/Lirik%20chatlog/April%202016/2016-04-05'
p580
aS'http://overrustlelogs.net/Lirik%20chatlog/April%202016/2016-04-06'
p581
aS'http://overrustlelogs.net/Lirik%20chatlog/April%202016/2016-04-07'
p582
aS'http://overrustlelogs.net/Lirik%20chatlog/April%202016/2016-04-08'
p583
aS'http://overrustlelogs.net/Lirik%20chatlog/April%202016/2016-04-09'
p584
aS'http://overrustlelogs.net/Lirik%20chatlog/April%202016/2016-04-10'
p585
aS'http://overrustlelogs.net/Lirik%20chatlog/April%202016/2016-04-11'
p586
aS'http://overrustlelogs.net/Lirik%20chatlog/April%202016/2016-04-12'
p587
aS'http://overrustlelogs.net/Lirik%20chatlog/April%202016/2016-04-13'
p588
aS'http://overrustlelogs.net/Lirik%20chatlog/April%202016/2016-04-14'
p589
aS'http://overrustlelogs.net/Lirik%20chatlog/April%202016/2016-04-15'
p590
aS'http://overrustlelogs.net/Lirik%20chatlog/April%202016/2016-04-16'
p591
aS'http://overrustlelogs.net/Lirik%20chatlog/April%202016/2016-04-17'
p592
aS'http://overrustlelogs.net/Lirik%20chatlog/April%202016/2016-04-18'
p593
aS'http://overrustlelogs.net/Lirik%20chatlog/April%202016/2016-04-19'
p594
aS'http://overrustlelogs.net/Lirik%20chatlog/April%202016/2016-04-20'
p595
aS'http://overrustlelogs.net/Lirik%20chatlog/April%202016/2016-04-21'
p596
aS'http://overrustlelogs.net/Lirik%20chatlog/April%202016/2016-04-22'
p597
aS'http://overrustlelogs.net/Lirik%20chatlog/April%202016/2016-04-23'
p598
aS'http://overrustlelogs.net/Lirik%20chatlog/April%202016/2016-04-24'
p599
aS'http://overrustlelogs.net/Lirik%20chatlog/April%202016/2016-04-25'
p600
aS'http://overrustlelogs.net/Lirik%20chatlog/April%202016/2016-04-26'
p601
aS'http://overrustlelogs.net/Lirik%20chatlog/April%202016/2016-04-27'
p602
aS'http://overrustlelogs.net/Lirik%20chatlog/April%202016/2016-04-28'
p603
aS'http://overrustlelogs.net/Lirik%20chatlog/April%202016/2016-04-29'
p604
aS'http://overrustlelogs.net/Lirik%20chatlog/April%202016/2016-04-30'
p605
aS'http://overrustlelogs.net/Lirik%20chatlog/May%202016/2016-05-01'
p606
aS'http://overrustlelogs.net/Lirik%20chatlog/May%202016/2016-05-02'
p607
aS'http://overrustlelogs.net/Lirik%20chatlog/May%202016/2016-05-03'
p608
aS'http://overrustlelogs.net/Lirik%20chatlog/May%202016/2016-05-04'
p609
aS'http://overrustlelogs.net/Lirik%20chatlog/May%202016/2016-05-05'
p610
aS'http://overrustlelogs.net/Lirik%20chatlog/May%202016/2016-05-06'
p611
aS'http://overrustlelogs.net/Lirik%20chatlog/May%202016/2016-05-07'
p612
aS'http://overrustlelogs.net/Lirik%20chatlog/May%202016/2016-05-08'
p613
aS'http://overrustlelogs.net/Lirik%20chatlog/May%202016/2016-05-09'
p614
aS'http://overrustlelogs.net/Lirik%20chatlog/May%202016/2016-05-10'
p615
aS'http://overrustlelogs.net/Lirik%20chatlog/May%202016/2016-05-11'
p616
aS'http://overrustlelogs.net/Lirik%20chatlog/May%202016/2016-05-12'
p617
aS'http://overrustlelogs.net/Lirik%20chatlog/May%202016/2016-05-13'
p618
aS'http://overrustlelogs.net/Lirik%20chatlog/May%202016/2016-05-14'
p619
aS'http://overrustlelogs.net/Lirik%20chatlog/May%202016/2016-05-15'
p620
aS'http://overrustlelogs.net/Lirik%20chatlog/May%202016/2016-05-16'
p621
aS'http://overrustlelogs.net/Lirik%20chatlog/May%202016/2016-05-17'
p622
aS'http://overrustlelogs.net/Lirik%20chatlog/May%202016/2016-05-18'
p623
aS'http://overrustlelogs.net/Lirik%20chatlog/May%202016/2016-05-19'
p624
aS'http://overrustlelogs.net/Lirik%20chatlog/May%202016/2016-05-20'
p625
aS'http://overrustlelogs.net/Lirik%20chatlog/May%202016/2016-05-21'
p626
aS'http://overrustlelogs.net/Lirik%20chatlog/May%202016/2016-05-22'
p627
aS'http://overrustlelogs.net/Lirik%20chatlog/May%202016/2016-05-23'
p628
aS'http://overrustlelogs.net/Lirik%20chatlog/May%202016/2016-05-24'
p629
aS'http://overrustlelogs.net/Lirik%20chatlog/May%202016/2016-05-25'
p630
aS'http://overrustlelogs.net/Lirik%20chatlog/May%202016/2016-05-26'
p631
as.